target datalayout = "e-m:e-p270:32:32-p271:32:32-p272:64:64-i64:64-i128:128-f80:128-n8:16:32:64-S128"
target triple = "x86_64-pc-linux-gnu"

@invoc_id = internal global ptr null, align 8
@.str.4 = private unnamed_addr constant [1 x i8] zeroinitializer, align 1
@ctl_names = internal global [5 x ptr] [ptr @.str.173, ptr @.str.174, ptr @.str.175, ptr @.str.176, ptr @.str.177], align 16
@.str.114 = private unnamed_addr constant [2 x i8] c" \00", align 1
@.str.178 = private unnamed_addr constant [22 x i8] c"%s/cgroup.controllers\00", align 1
@.str.179 = private unnamed_addr constant [19 x i8] c"cannot read %s: %m\00", align 1
@.str.180 = private unnamed_addr constant [30 x i8] c"Controller %s is not enabled!\00", align 1

; Function Attrs: nounwind uwtable
define internal i32 @_get_controllers(ptr noundef %0, ptr noundef %1) #0 {
  %3 = alloca i32, align 4
  %4 = alloca ptr, align 8
  %5 = alloca ptr, align 8
  %6 = alloca ptr, align 8
  %7 = alloca ptr, align 8
  %8 = alloca ptr, align 8
  %9 = alloca ptr, align 8
  %10 = alloca i64, align 8
  %11 = alloca i32, align 4
  %12 = alloca i32, align 4
  %13 = alloca i32, align 4
  store ptr %0, ptr %4, align 8
  store ptr %1, ptr %5, align 8
  call void @llvm.lifetime.start.p0(i64 8, ptr %6) #10
  store ptr null, ptr %6, align 8
  call void @llvm.lifetime.start.p0(i64 8, ptr %7) #10
  call void @llvm.lifetime.start.p0(i64 8, ptr %8) #10
  call void @llvm.lifetime.start.p0(i64 8, ptr %9) #10
  store ptr null, ptr %9, align 8
  call void @llvm.lifetime.start.p0(i64 8, ptr %10) #10
  %14 = load ptr, ptr %4, align 8
  call void (ptr, ptr, ...) @_xstrfmtcat(ptr noundef %9, ptr noundef @.str.178, ptr noundef %14)
  %15 = load ptr, ptr %9, align 8
  %16 = call i32 @common_file_read_content(ptr noundef %15, ptr noundef %6, ptr noundef %10)
  %17 = icmp ne i32 %16, 0
  br i1 %17, label %21, label %18

18:                                               ; preds = %2
  %19 = load ptr, ptr %6, align 8
  %20 = icmp ne ptr %19, null
  br i1 %20, label %24, label %21

21:                                               ; preds = %18, %2
  %22 = load ptr, ptr %9, align 8
  %23 = call i32 (ptr, ...) @error(ptr noundef @.str.179, ptr noundef %22)
  call void @slurm_xfree(ptr noundef %9)
  store i32 -1, ptr %3, align 4
  store i32 1, ptr %11, align 4
  br label %107

24:                                               ; preds = %18
  call void @slurm_xfree(ptr noundef %9)
  %25 = load ptr, ptr %6, align 8
  %26 = load i64, ptr %10, align 8
  %27 = sub i64 %26, 1
  %28 = getelementptr inbounds nuw i8, ptr %25, i64 %27
  %29 = load i8, ptr %28, align 1
  %30 = sext i8 %29 to i32
  %31 = icmp eq i32 %30, 10
  br i1 %31, label %32, label %37

32:                                               ; preds = %24
  %33 = load ptr, ptr %6, align 8
  %34 = load i64, ptr %10, align 8
  %35 = sub i64 %34, 1
  %36 = getelementptr inbounds nuw i8, ptr %33, i64 %35
  store i8 0, ptr %36, align 1
  br label %37

37:                                               ; preds = %32, %24
  %38 = load ptr, ptr %6, align 8
  %39 = call ptr @strtok_r(ptr noundef %38, ptr noundef @.str.114, ptr noundef %8) #10
  store ptr %39, ptr %7, align 8
  br label %40

40:                                               ; preds = %73, %37
  %41 = load ptr, ptr %7, align 8
  %42 = icmp ne ptr %41, null
  br i1 %42, label %43, label %75

43:                                               ; preds = %40
  call void @llvm.lifetime.start.p0(i64 4, ptr %12) #10
  store i32 0, ptr %12, align 4
  br label %44

44:                                               ; preds = %69, %43
  %45 = load i32, ptr %12, align 4
  %46 = icmp slt i32 %45, 5
  br i1 %46, label %48, label %47

47:                                               ; preds = %44
  store i32 4, ptr %11, align 4
  br label %72

48:                                               ; preds = %44
  %49 = load i32, ptr %12, align 4
  %50 = sext i32 %49 to i64
  %51 = getelementptr inbounds [5 x ptr], ptr @ctl_names, i64 0, i64 %50
  %52 = load ptr, ptr %51, align 8
  %53 = call i32 @xstrcmp(ptr noundef %52, ptr noundef @.str.4)
  %54 = icmp ne i32 %53, 0
  br i1 %54, label %56, label %55

55:                                               ; preds = %48
  br label %69

56:                                               ; preds = %48
  %57 = load i32, ptr %12, align 4
  %58 = sext i32 %57 to i64
  %59 = getelementptr inbounds [5 x ptr], ptr @ctl_names, i64 0, i64 %58
  %60 = load ptr, ptr %59, align 8
  %61 = load ptr, ptr %7, align 8
  %62 = call i32 @xstrcasecmp(ptr noundef %60, ptr noundef %61)
  %63 = icmp ne i32 %62, 0
  br i1 %63, label %68, label %64

64:                                               ; preds = %56
  %65 = load ptr, ptr %5, align 8
  %66 = load i32, ptr %12, align 4
  %67 = sext i32 %66 to i64
  call void @bit_set(ptr noundef %65, i64 noundef %67)
  store i32 4, ptr %11, align 4
  br label %72

68:                                               ; preds = %56
  br label %69

69:                                               ; preds = %68, %55
  %70 = load i32, ptr %12, align 4
  %71 = add nsw i32 %70, 1
  store i32 %71, ptr %12, align 4
  br label %44, !llvm.loop !16

72:                                               ; preds = %64, %47
  call void @llvm.lifetime.end.p0(i64 4, ptr %12) #10
  br label %73

73:                                               ; preds = %72
  %74 = call ptr @strtok_r(ptr noundef null, ptr noundef @.str.114, ptr noundef %8) #10
  store ptr %74, ptr %7, align 8
  br label %40, !llvm.loop !17

75:                                               ; preds = %40
  call void @slurm_xfree(ptr noundef %6)
  call void @llvm.lifetime.start.p0(i64 4, ptr %13) #10
  store i32 0, ptr %13, align 4
  br label %76

76:                                               ; preds = %103, %75
  %77 = load i32, ptr %13, align 4
  %78 = icmp slt i32 %77, 5
  br i1 %78, label %80, label %79

79:                                               ; preds = %76
  store i32 7, ptr %11, align 4
  call void @llvm.lifetime.end.p0(i64 4, ptr %13) #10
  br label %106

80:                                               ; preds = %76
  %81 = load i32, ptr %13, align 4
  %82 = icmp eq i32 %81, 3
  br i1 %82, label %86, label %83

83:                                               ; preds = %80
  %84 = load i32, ptr %13, align 4
  %85 = icmp eq i32 %84, 0
  br i1 %85, label %86, label %87

86:                                               ; preds = %83, %80
  br label %103

87:                                               ; preds = %83
  %88 = load ptr, ptr @invoc_id, align 8
  %89 = icmp ne ptr %88, null
  br i1 %89, label %90, label %102

90:                                               ; preds = %87
  %91 = load ptr, ptr %5, align 8
  %92 = load i32, ptr %13, align 4
  %93 = sext i32 %92 to i64
  %94 = call i32 @slurm_bit_test(ptr noundef %91, i64 noundef %93)
  %95 = icmp ne i32 %94, 0
  br i1 %95, label %102, label %96

96:                                               ; preds = %90
  %97 = load i32, ptr %13, align 4
  %98 = sext i32 %97 to i64
  %99 = getelementptr inbounds [5 x ptr], ptr @ctl_names, i64 0, i64 %98
  %100 = load ptr, ptr %99, align 8
  %101 = call i32 (ptr, ...) @error(ptr noundef @.str.180, ptr noundef %100)
  br label %102

102:                                              ; preds = %96, %90, %87
  br label %103

103:                                              ; preds = %102, %86
  %104 = load i32, ptr %13, align 4
  %105 = add nsw i32 %104, 1
  store i32 %105, ptr %13, align 4
  br label %76, !llvm.loop !18

106:                                              ; preds = %79
  store i32 0, ptr %3, align 4
  store i32 1, ptr %11, align 4
  br label %107

107:                                              ; preds = %106, %21
  call void @llvm.lifetime.end.p0(i64 8, ptr %10) #10
  call void @llvm.lifetime.end.p0(i64 8, ptr %9) #10
  call void @llvm.lifetime.end.p0(i64 8, ptr %8) #10
  call void @llvm.lifetime.end.p0(i64 8, ptr %7) #10
  call void @llvm.lifetime.end.p0(i64 8, ptr %6) #10
  %108 = load i32, ptr %3, align 4
  ret i32 %108
}