; Function Attrs: nounwind uwtable
define internal fastcc range(i32 -1, 1) i32 @_get_controllers(ptr noundef %0, ptr noundef %1) unnamed_addr #0 {
  %3 = alloca ptr, align 8
  %4 = alloca ptr, align 8
  %5 = alloca ptr, align 8
  %6 = alloca i64, align 8
  call void @llvm.lifetime.start.p0(i64 8, ptr nonnull %3) #17
  store ptr null, ptr %3, align 8
  call void @llvm.lifetime.start.p0(i64 8, ptr nonnull %4) #17
  call void @llvm.lifetime.start.p0(i64 8, ptr nonnull %5) #17
  store ptr null, ptr %5, align 8
  call void @llvm.lifetime.start.p0(i64 8, ptr nonnull %6) #17
  call void (ptr, ptr, ...) @_xstrfmtcat(ptr noundef nonnull %5, ptr noundef nonnull @.str.178, ptr noundef %0) #17
  %7 = load ptr, ptr %5, align 8
  %8 = call i32 @common_file_read_content(ptr noundef %7, ptr noundef nonnull %3, ptr noundef nonnull %6) #17
  %9 = icmp eq i32 %8, 0
  %10 = load ptr, ptr %3, align 8
  %11 = icmp ne ptr %10, null
  %or.cond = select i1 %9, i1 %11, i1 false
  br i1 %or.cond, label %15, label %12

12:                                               ; preds = %2
  %13 = load ptr, ptr %5, align 8
  %14 = call i32 (ptr, ...) @error(ptr noundef nonnull @.str.179, ptr noundef %13) #17
  call void @slurm_xfree(ptr noundef nonnull %5) #17
  br label %.loopexit

15:                                               ; preds = %2
  call void @slurm_xfree(ptr noundef nonnull %5) #17
  %16 = load ptr, ptr %3, align 8
  %17 = load i64, ptr %6, align 8
  %18 = getelementptr i8, ptr %16, i64 %17
  %19 = getelementptr i8, ptr %18, i64 -1
  %20 = load i8, ptr %19, align 1
  %21 = icmp eq i8 %20, 10
  br i1 %21, label %22, label %23

22:                                               ; preds = %15
  store i8 0, ptr %19, align 1
  %.pre = load ptr, ptr %3, align 8
  br label %23

23:                                               ; preds = %22, %15
  %24 = phi ptr [ %.pre, %22 ], [ %16, %15 ]
  %25 = call ptr @strtok_r(ptr noundef %24, ptr noundef nonnull @.str.114, ptr noundef nonnull %4) #17
  %.not33 = icmp eq ptr %25, null
  br i1 %.not33, label %._crit_edge, label %.preheader

.preheader:                                       ; preds = %23, %.loopexit31
  %.02234 = phi ptr [ %34, %.loopexit31 ], [ %25, %23 ]
  br label %26

26:                                               ; preds = %.preheader, %33
  %indvars.iv = phi i64 [ 0, %.preheader ], [ %indvars.iv.next, %33 ]
  %27 = getelementptr inbounds nuw [5 x ptr], ptr @ctl_names, i64 0, i64 %indvars.iv
  %28 = load ptr, ptr %27, align 8
  %29 = call i32 @xstrcmp(ptr noundef %28, ptr noundef nonnull @.str.4) #17
  %.not28 = icmp eq i32 %29, 0
  br i1 %.not28, label %33, label %30

30:                                               ; preds = %26
  %31 = call i32 @xstrcasecmp(ptr noundef %28, ptr noundef nonnull %.02234) #17
  %.not29 = icmp eq i32 %31, 0
  br i1 %.not29, label %32, label %33

32:                                               ; preds = %30
  call void @bit_set(ptr noundef %1, i64 noundef %indvars.iv) #17
  br label %.loopexit31

33:                                               ; preds = %30, %26
  %indvars.iv.next = add nuw nsw i64 %indvars.iv, 1
  %exitcond.not = icmp eq i64 %indvars.iv.next, 5
  br i1 %exitcond.not, label %.loopexit31, label %26, !llvm.loop !21

.loopexit31:                                      ; preds = %33, %32
  %34 = call ptr @strtok_r(ptr noundef null, ptr noundef nonnull @.str.114, ptr noundef nonnull %4) #17
  %.not = icmp eq ptr %34, null
  br i1 %.not, label %._crit_edge, label %.preheader, !llvm.loop !22

._crit_edge:                                      ; preds = %.loopexit31, %23
  call void @slurm_xfree(ptr noundef nonnull %3) #17
  br label %35

35:                                               ; preds = %._crit_edge, %44
  %indvars.iv38 = phi i64 [ 0, %._crit_edge ], [ %indvars.iv.next39, %44 ]
  %36 = load ptr, ptr @invoc_id, align 8
  %.fr = freeze ptr %36
  %.not30 = icmp eq ptr %.fr, null
  br i1 %.not30, label %44, label %switch.early.test

switch.early.test:                                ; preds = %35
  %37 = trunc nuw nsw i64 %indvars.iv38 to i32
  switch i32 %37, label %38 [
    i32 3, label %44
    i32 0, label %44
  ]

38:                                               ; preds = %switch.early.test
  %39 = call i32 @slurm_bit_test(ptr noundef %1, i64 noundef %indvars.iv38) #17
  %.not27 = icmp eq i32 %39, 0
  br i1 %.not27, label %40, label %44

40:                                               ; preds = %38
  %41 = getelementptr inbounds nuw [5 x ptr], ptr @ctl_names, i64 0, i64 %indvars.iv38
  %42 = load ptr, ptr %41, align 8
  %43 = call i32 (ptr, ...) @error(ptr noundef nonnull @.str.180, ptr noundef %42) #17
  br label %44

44:                                               ; preds = %switch.early.test, %switch.early.test, %35, %38, %40
  %indvars.iv.next39 = add nuw nsw i64 %indvars.iv38, 1
  %exitcond41.not = icmp eq i64 %indvars.iv.next39, 5
  br i1 %exitcond41.not, label %.loopexit, label %35, !llvm.loop !23

.loopexit:                                        ; preds = %44, %12
  %.023 = phi i32 [ -1, %12 ], [ 0, %44 ]
  call void @llvm.lifetime.end.p0(i64 8, ptr nonnull %6) #17
  call void @llvm.lifetime.end.p0(i64 8, ptr nonnull %5) #17
  call void @llvm.lifetime.end.p0(i64 8, ptr nonnull %4) #17
  call void @llvm.lifetime.end.p0(i64 8, ptr nonnull %3) #17
  ret i32 %.023
}